; Function Attrs: mustprogress nofree norecurse nosync nounwind willreturn memory(argmem: readwrite) uwtable
define void @_ZNK6colvar10spin_angle4wrapER11colvarvalue(ptr nocapture noundef nonnull readonly align 8 dereferenceable(2360) %0, ptr nocapture noundef nonnull align 8 dereferenceable(168) %1) unnamed_addr #6 align 2 {
  %3 = getelementptr inbounds i8, ptr %1, i64 8
  %4 = load double, ptr %3, align 8
  %5 = getelementptr inbounds i8, ptr %0, i64 560
  %6 = load double, ptr %5, align 8
  %7 = fsub double %4, %6
  %8 = fcmp ult double %7, 1.800000e+02
  br i1 %8, label %9, label %.sink.split

9:                                                ; preds = %2
  %10 = fcmp olt double %7, -1.800000e+02
  br i1 %10, label %.sink.split, label %12

.sink.split:                                      ; preds = %9, %2
  %.sink5 = phi double [ -3.600000e+02, %2 ], [ 3.600000e+02, %9 ]
  %11 = fadd double %4, %.sink5
  store double %11, ptr %3, align 8
  br label %12

12:                                               ; preds = %.sink.split, %9
  ret void
}